target datalayout = "e-m:e-p270:32:32-p271:32:32-p272:64:64-i64:64-i128:128-f80:128-n8:16:32:64-S128"
target triple = "x86_64-pc-linux-gnu"

%struct.uniq = type { ptr, i32, i32, i32, [256 x i32] }

; Function Attrs: nounwind uwtable
define void @uniq_free(ptr noundef %0) #0 {
  %2 = alloca ptr, align 8
  store ptr %0, ptr %2, align 8
  %3 = load ptr, ptr %2, align 8
  %4 = getelementptr inbounds %struct.uniq, ptr %3, i32 0, i32 0
  %5 = load ptr, ptr %4, align 8
  call void @free(ptr noundef %5) #7
  %6 = load ptr, ptr %2, align 8
  call void @free(ptr noundef %6) #7
  ret void
}

; Function Attrs: nounwind uwtable
define ptr @uniq_init(i32 noundef %0) #0 {
  %2 = alloca ptr, align 8
  %3 = alloca i32, align 4
  %4 = alloca ptr, align 8
  store i32 %0, ptr %3, align 4
  %5 = load i32, ptr %3, align 4
  %6 = icmp ne i32 %5, 0
  br i1 %6, label %8, label %7

7:                                                ; preds = %1
  store ptr null, ptr %2, align 8
  br label %31

8:                                                ; preds = %1
  %9 = call noalias ptr @calloc(i64 noundef 1, i64 noundef 1048) #6
  store ptr %9, ptr %4, align 8
  %10 = load ptr, ptr %4, align 8
  %11 = icmp ne ptr %10, null
  br i1 %11, label %13, label %12

12:                                               ; preds = %8
  store ptr null, ptr %2, align 8
  br label %31

13:                                               ; preds = %8
  %14 = load i32, ptr %3, align 4
  %15 = zext i32 %14 to i64
  %16 = mul i64 %15, 64
  %17 = call ptr @cli_max_malloc(i64 noundef %16)
  %18 = load ptr, ptr %4, align 8
  %19 = getelementptr inbounds %struct.uniq, ptr %18, i32 0, i32 0
  store ptr %17, ptr %19, align 8
  %20 = load ptr, ptr %4, align 8
  %21 = getelementptr inbounds %struct.uniq, ptr %20, i32 0, i32 0
  %22 = load ptr, ptr %21, align 8
  %23 = icmp ne ptr %22, null
  br i1 %23, label %26, label %24

24:                                               ; preds = %13
  %25 = load ptr, ptr %4, align 8
  call void @uniq_free(ptr noundef %25)
  store ptr null, ptr %2, align 8
  br label %31

26:                                               ; preds = %13
  %27 = load i32, ptr %3, align 4
  %28 = load ptr, ptr %4, align 8
  %29 = getelementptr inbounds %struct.uniq, ptr %28, i32 0, i32 3
  store i32 %27, ptr %29, align 8
  %30 = load ptr, ptr %4, align 8
  store ptr %30, ptr %2, align 8
  br label %31

31:                                               ; preds = %26, %24, %12, %7
  %32 = load ptr, ptr %2, align 8
  ret ptr %32
}