; Function Attrs: nounwind uwtable
define noalias noundef ptr @uniq_init(i32 noundef %0) local_unnamed_addr #0 {
  %.not = icmp eq i32 %0, 0
  br i1 %.not, label %11, label %2

2:                                                ; preds = %1
  %3 = tail call noalias dereferenceable_or_null(1048) ptr @calloc(i64 noundef 1, i64 noundef 1048) #6
  %.not11 = icmp eq ptr %3, null
  br i1 %.not11, label %11, label %4

4:                                                ; preds = %2
  %5 = zext i32 %0 to i64
  %6 = shl nuw nsw i64 %5, 6
  %7 = tail call ptr @cli_max_malloc(i64 noundef %6) #7
  store ptr %7, ptr %3, align 8
  %.not12 = icmp eq ptr %7, null
  br i1 %.not12, label %8, label %9

8:                                                ; preds = %4
  tail call void @free(ptr noundef nonnull %3) #7
  br label %11

9:                                                ; preds = %4
  %10 = getelementptr inbounds i8, ptr %3, i64 16
  store i32 %0, ptr %10, align 8
  br label %11

11:                                               ; preds = %2, %1, %9, %8
  %.0 = phi ptr [ %3, %9 ], [ null, %8 ], [ null, %1 ], [ null, %2 ]
  ret ptr %.0
}